target datalayout = "e-m:e-p270:32:32-p271:32:32-p272:64:64-i64:64-i128:128-f80:128-n8:16:32:64-S128"
target triple = "x86_64-pc-linux-gnu"

%struct.ossl_method_store_st = type { ptr, ptr, ptr, ptr, i64, i32 }
%struct.ALGORITHM = type { i32, ptr, ptr }
%struct.IMPLEMENTATION = type { ptr, ptr, %struct.METHOD }
%struct.METHOD = type { ptr, ptr, ptr }

; Function Attrs: inlinehint nounwind uwtable
define internal void @sk_ALGORITHM_free(ptr noundef %0) #3 {
  %2 = alloca ptr, align 8
  store ptr %0, ptr %2, align 8, !tbaa !61
  %3 = load ptr, ptr %2, align 8, !tbaa !61
  call void @OPENSSL_sk_free(ptr noundef %3)
  ret void
}

; Function Attrs: nounwind uwtable
define internal void @alg_do_one(ptr noundef %0, ptr noundef %1, ptr noundef %2, ptr noundef %3) #0 {
  %5 = alloca ptr, align 8
  %6 = alloca ptr, align 8
  %7 = alloca ptr, align 8
  %8 = alloca ptr, align 8
  store ptr %0, ptr %5, align 8, !tbaa !3
  store ptr %1, ptr %6, align 8, !tbaa !3
  store ptr %2, ptr %7, align 8, !tbaa !3
  store ptr %3, ptr %8, align 8, !tbaa !3
  %9 = load ptr, ptr %7, align 8, !tbaa !3
  %10 = load ptr, ptr %5, align 8, !tbaa !3
  %11 = getelementptr inbounds nuw %struct.ALGORITHM, ptr %10, i32 0, i32 0
  %12 = load i32, ptr %11, align 8, !tbaa !43
  %13 = load ptr, ptr %6, align 8, !tbaa !3
  %14 = getelementptr inbounds nuw %struct.IMPLEMENTATION, ptr %13, i32 0, i32 2
  %15 = getelementptr inbounds nuw %struct.METHOD, ptr %14, i32 0, i32 0
  %16 = load ptr, ptr %15, align 8, !tbaa !36
  %17 = load ptr, ptr %8, align 8, !tbaa !3
  call void %9(i32 noundef %12, ptr noundef %16, ptr noundef %17)
  ret void
}

; Function Attrs: inlinehint nounwind uwtable
define internal ptr @sk_IMPLEMENTATION_value(ptr noundef %0, i32 noundef %1) #3 {
  %3 = alloca ptr, align 8
  %4 = alloca i32, align 4
  store ptr %0, ptr %3, align 8, !tbaa !53
  store i32 %1, ptr %4, align 4, !tbaa !15
  %5 = load ptr, ptr %3, align 8, !tbaa !53
  %6 = load i32, ptr %4, align 4, !tbaa !15
  %7 = call ptr @OPENSSL_sk_value(ptr noundef %5, i32 noundef %6)
  ret ptr %7
}

; Function Attrs: inlinehint nounwind uwtable
define internal i32 @sk_IMPLEMENTATION_num(ptr noundef %0) #3 {
  %2 = alloca ptr, align 8
  store ptr %0, ptr %2, align 8, !tbaa !53
  %3 = load ptr, ptr %2, align 8, !tbaa !53
  %4 = call i32 @OPENSSL_sk_num(ptr noundef %3)
  ret i32 %4
}

; Function Attrs: inlinehint nounwind uwtable
define internal ptr @sk_ALGORITHM_value(ptr noundef %0, i32 noundef %1) #3 {
  %3 = alloca ptr, align 8
  %4 = alloca i32, align 4
  store ptr %0, ptr %3, align 8, !tbaa !61
  store i32 %1, ptr %4, align 4, !tbaa !15
  %5 = load ptr, ptr %3, align 8, !tbaa !61
  %6 = load i32, ptr %4, align 4, !tbaa !15
  %7 = call ptr @OPENSSL_sk_value(ptr noundef %5, i32 noundef %6)
  ret ptr %7
}

; Function Attrs: inlinehint nounwind uwtable
define internal i32 @sk_ALGORITHM_num(ptr noundef %0) #3 {
  %2 = alloca ptr, align 8
  store ptr %0, ptr %2, align 8, !tbaa !61
  %3 = load ptr, ptr %2, align 8, !tbaa !61
  %4 = call i32 @OPENSSL_sk_num(ptr noundef %3)
  ret i32 %4
}

; Function Attrs: inlinehint nounwind uwtable
define internal void @ossl_sa_ALGORITHM_doall_arg(ptr noundef %0, ptr noundef %1, ptr noundef %2) #3 {
  %4 = alloca ptr, align 8
  %5 = alloca ptr, align 8
  %6 = alloca ptr, align 8
  store ptr %0, ptr %4, align 8, !tbaa !25
  store ptr %1, ptr %5, align 8, !tbaa !3
  store ptr %2, ptr %6, align 8, !tbaa !3
  %7 = load ptr, ptr %4, align 8, !tbaa !25
  %8 = load ptr, ptr %5, align 8, !tbaa !3
  %9 = load ptr, ptr %6, align 8, !tbaa !3
  call void @ossl_sa_doall_arg(ptr noundef %7, ptr noundef %8, ptr noundef %9)
  ret void
}

; Function Attrs: nounwind uwtable
define internal i32 @ossl_property_unlock(ptr noundef %0) #0 {
  %2 = alloca ptr, align 8
  store ptr %0, ptr %2, align 8, !tbaa !16
  %3 = load ptr, ptr %2, align 8, !tbaa !16
  %4 = icmp ne ptr %3, null
  br i1 %4, label %5, label %10

5:                                                ; preds = %1
  %6 = load ptr, ptr %2, align 8, !tbaa !16
  %7 = getelementptr inbounds nuw %struct.ossl_method_store_st, ptr %6, i32 0, i32 2
  %8 = load ptr, ptr %7, align 8, !tbaa !23
  %9 = call i32 @CRYPTO_THREAD_unlock(ptr noundef %8)
  br label %11

10:                                               ; preds = %1
  br label %11

11:                                               ; preds = %10, %5
  %12 = phi i32 [ %9, %5 ], [ 0, %10 ]
  ret i32 %12
}

; Function Attrs: inlinehint nounwind uwtable
define internal ptr @sk_ALGORITHM_new_reserve(ptr noundef %0, i32 noundef %1) #3 {
  %3 = alloca ptr, align 8
  %4 = alloca i32, align 4
  store ptr %0, ptr %3, align 8, !tbaa !3
  store i32 %1, ptr %4, align 4, !tbaa !15
  %5 = load ptr, ptr %3, align 8, !tbaa !3
  %6 = load i32, ptr %4, align 4, !tbaa !15
  %7 = call ptr @OPENSSL_sk_new_reserve(ptr noundef %5, i32 noundef %6)
  ret ptr %7
}

; Function Attrs: inlinehint nounwind uwtable
define internal i64 @ossl_sa_ALGORITHM_num(ptr noundef %0) #3 {
  %2 = alloca ptr, align 8
  store ptr %0, ptr %2, align 8, !tbaa !25
  %3 = load ptr, ptr %2, align 8, !tbaa !25
  %4 = call i64 @ossl_sa_num(ptr noundef %3)
  ret i64 %4
}

; Function Attrs: nounwind uwtable
define internal i32 @ossl_property_read_lock(ptr noundef %0) #0 {
  %2 = alloca ptr, align 8
  store ptr %0, ptr %2, align 8, !tbaa !16
  %3 = load ptr, ptr %2, align 8, !tbaa !16
  %4 = icmp ne ptr %3, null
  br i1 %4, label %5, label %10

5:                                                ; preds = %1
  %6 = load ptr, ptr %2, align 8, !tbaa !16
  %7 = getelementptr inbounds nuw %struct.ossl_method_store_st, ptr %6, i32 0, i32 2
  %8 = load ptr, ptr %7, align 8, !tbaa !23
  %9 = call i32 @CRYPTO_THREAD_read_lock(ptr noundef %8)
  br label %11

10:                                               ; preds = %1
  br label %11

11:                                               ; preds = %10, %5
  %12 = phi i32 [ %9, %5 ], [ 0, %10 ]
  ret i32 %12
}

; Function Attrs: nounwind uwtable
define void @ossl_method_store_do_all(ptr noundef %0, ptr noundef %1, ptr noundef %2) #0 {
  %4 = alloca ptr, align 8
  %5 = alloca ptr, align 8
  %6 = alloca ptr, align 8
  %7 = alloca i32, align 4
  %8 = alloca i32, align 4
  %9 = alloca i32, align 4
  %10 = alloca i32, align 4
  %11 = alloca ptr, align 8
  %12 = alloca ptr, align 8
  %13 = alloca i32, align 4
  store ptr %0, ptr %4, align 8, !tbaa !16
  store ptr %1, ptr %5, align 8, !tbaa !3
  store ptr %2, ptr %6, align 8, !tbaa !3
  call void @llvm.lifetime.start.p0(i64 4, ptr %7) #7
  call void @llvm.lifetime.start.p0(i64 4, ptr %8) #7
  call void @llvm.lifetime.start.p0(i64 4, ptr %9) #7
  call void @llvm.lifetime.start.p0(i64 4, ptr %10) #7
  call void @llvm.lifetime.start.p0(i64 8, ptr %11) #7
  call void @llvm.lifetime.start.p0(i64 8, ptr %12) #7
  %14 = load ptr, ptr %4, align 8, !tbaa !16
  %15 = icmp ne ptr %14, null
  br i1 %15, label %16, label %76

16:                                               ; preds = %3
  %17 = load ptr, ptr %4, align 8, !tbaa !16
  %18 = call i32 @ossl_property_read_lock(ptr noundef %17)
  %19 = icmp ne i32 %18, 0
  br i1 %19, label %21, label %20

20:                                               ; preds = %16
  store i32 1, ptr %13, align 4
  br label %77

21:                                               ; preds = %16
  %22 = load ptr, ptr %4, align 8, !tbaa !16
  %23 = getelementptr inbounds nuw %struct.ossl_method_store_st, ptr %22, i32 0, i32 1
  %24 = load ptr, ptr %23, align 8, !tbaa !22
  %25 = call i64 @ossl_sa_ALGORITHM_num(ptr noundef %24)
  %26 = trunc i64 %25 to i32
  %27 = call ptr @sk_ALGORITHM_new_reserve(ptr noundef null, i32 noundef %26)
  store ptr %27, ptr %11, align 8, !tbaa !61
  %28 = load ptr, ptr %11, align 8, !tbaa !61
  %29 = icmp eq ptr %28, null
  br i1 %29, label %30, label %33

30:                                               ; preds = %21
  %31 = load ptr, ptr %4, align 8, !tbaa !16
  %32 = call i32 @ossl_property_unlock(ptr noundef %31)
  store i32 1, ptr %13, align 4
  br label %77

33:                                               ; preds = %21
  %34 = load ptr, ptr %4, align 8, !tbaa !16
  %35 = getelementptr inbounds nuw %struct.ossl_method_store_st, ptr %34, i32 0, i32 1
  %36 = load ptr, ptr %35, align 8, !tbaa !22
  %37 = load ptr, ptr %11, align 8, !tbaa !61
  call void @ossl_sa_ALGORITHM_doall_arg(ptr noundef %36, ptr noundef @alg_copy, ptr noundef %37)
  %38 = load ptr, ptr %4, align 8, !tbaa !16
  %39 = call i32 @ossl_property_unlock(ptr noundef %38)
  %40 = load ptr, ptr %11, align 8, !tbaa !61
  %41 = call i32 @sk_ALGORITHM_num(ptr noundef %40)
  store i32 %41, ptr %9, align 4, !tbaa !15
  store i32 0, ptr %7, align 4, !tbaa !15
  br label %42

42:                                               ; preds = %71, %33
  %43 = load i32, ptr %7, align 4, !tbaa !15
  %44 = load i32, ptr %9, align 4, !tbaa !15
  %45 = icmp slt i32 %43, %44
  br i1 %45, label %46, label %74

46:                                               ; preds = %42
  %47 = load ptr, ptr %11, align 8, !tbaa !61
  %48 = load i32, ptr %7, align 4, !tbaa !15
  %49 = call ptr @sk_ALGORITHM_value(ptr noundef %47, i32 noundef %48)
  store ptr %49, ptr %12, align 8, !tbaa !3
  %50 = load ptr, ptr %12, align 8, !tbaa !3
  %51 = getelementptr inbounds nuw %struct.ALGORITHM, ptr %50, i32 0, i32 1
  %52 = load ptr, ptr %51, align 8, !tbaa !27
  %53 = call i32 @sk_IMPLEMENTATION_num(ptr noundef %52)
  store i32 %53, ptr %10, align 4, !tbaa !15
  store i32 0, ptr %8, align 4, !tbaa !15
  br label %54

54:                                               ; preds = %67, %46
  %55 = load i32, ptr %8, align 4, !tbaa !15
  %56 = load i32, ptr %10, align 4, !tbaa !15
  %57 = icmp slt i32 %55, %56
  br i1 %57, label %58, label %70

58:                                               ; preds = %54
  %59 = load ptr, ptr %12, align 8, !tbaa !3
  %60 = load ptr, ptr %12, align 8, !tbaa !3
  %61 = getelementptr inbounds nuw %struct.ALGORITHM, ptr %60, i32 0, i32 1
  %62 = load ptr, ptr %61, align 8, !tbaa !27
  %63 = load i32, ptr %8, align 4, !tbaa !15
  %64 = call ptr @sk_IMPLEMENTATION_value(ptr noundef %62, i32 noundef %63)
  %65 = load ptr, ptr %5, align 8, !tbaa !3
  %66 = load ptr, ptr %6, align 8, !tbaa !3
  call void @alg_do_one(ptr noundef %59, ptr noundef %64, ptr noundef %65, ptr noundef %66)
  br label %67

67:                                               ; preds = %58
  %68 = load i32, ptr %8, align 4, !tbaa !15
  %69 = add nsw i32 %68, 1
  store i32 %69, ptr %8, align 4, !tbaa !15
  br label %54, !llvm.loop !63

70:                                               ; preds = %54
  br label %71

71:                                               ; preds = %70
  %72 = load i32, ptr %7, align 4, !tbaa !15
  %73 = add nsw i32 %72, 1
  store i32 %73, ptr %7, align 4, !tbaa !15
  br label %42, !llvm.loop !64

74:                                               ; preds = %42
  %75 = load ptr, ptr %11, align 8, !tbaa !61
  call void @sk_ALGORITHM_free(ptr noundef %75)
  br label %76

76:                                               ; preds = %74, %3
  store i32 0, ptr %13, align 4
  br label %77

77:                                               ; preds = %76, %30, %20
  call void @llvm.lifetime.end.p0(i64 8, ptr %12) #7
  call void @llvm.lifetime.end.p0(i64 8, ptr %11) #7
  call void @llvm.lifetime.end.p0(i64 4, ptr %10) #7
  call void @llvm.lifetime.end.p0(i64 4, ptr %9) #7
  call void @llvm.lifetime.end.p0(i64 4, ptr %8) #7
  call void @llvm.lifetime.end.p0(i64 4, ptr %7) #7
  %78 = load i32, ptr %13, align 4
  switch i32 %78, label %80 [
    i32 0, label %79
    i32 1, label %79
  ]

79:                                               ; preds = %77, %77
  ret void

80:                                               ; preds = %77
  unreachable
}