; Function Attrs: nounwind uwtable
define void @ossl_method_store_do_all(ptr noundef readonly captures(address_is_null) %0, ptr noundef readonly captures(none) %1, ptr noundef %2) local_unnamed_addr #0 {
  %.not = icmp eq ptr %0, null
  br i1 %.not, label %31, label %4

4:                                                ; preds = %3
  %5 = getelementptr i8, ptr %0, i64 16
  %.val = load ptr, ptr %5, align 8, !tbaa !16
  %6 = tail call i32 @CRYPTO_THREAD_read_lock(ptr noundef %.val) #7
  %.not26 = icmp eq i32 %6, 0
  br i1 %.not26, label %31, label %7

7:                                                ; preds = %4
  %8 = getelementptr inbounds nuw i8, ptr %0, i64 8
  %9 = load ptr, ptr %8, align 8, !tbaa !15
  %10 = tail call i64 @ossl_sa_num(ptr noundef %9) #7
  %11 = trunc i64 %10 to i32
  %12 = tail call ptr @OPENSSL_sk_new_reserve(ptr noundef null, i32 noundef %11) #7
  %13 = icmp eq ptr %12, null
  br i1 %13, label %ossl_property_unlock.exit, label %ossl_property_unlock.exit30

ossl_property_unlock.exit:                        ; preds = %7
  %14 = load ptr, ptr %5, align 8, !tbaa !16
  %15 = tail call i32 @CRYPTO_THREAD_unlock(ptr noundef %14) #7
  br label %31

ossl_property_unlock.exit30:                      ; preds = %7
  %16 = load ptr, ptr %8, align 8, !tbaa !15
  tail call void @ossl_sa_doall_arg(ptr noundef %16, ptr noundef nonnull @alg_copy, ptr noundef nonnull %12) #7
  %17 = load ptr, ptr %5, align 8, !tbaa !16
  %18 = tail call i32 @CRYPTO_THREAD_unlock(ptr noundef %17) #7
  %19 = tail call i32 @OPENSSL_sk_num(ptr noundef nonnull %12) #7
  %20 = icmp sgt i32 %19, 0
  br i1 %20, label %.lr.ph33, label %._crit_edge34

.lr.ph33:                                         ; preds = %ossl_property_unlock.exit30, %._crit_edge
  %.032 = phi i32 [ %30, %._crit_edge ], [ 0, %ossl_property_unlock.exit30 ]
  %21 = tail call ptr @OPENSSL_sk_value(ptr noundef nonnull %12, i32 noundef %.032) #7
  %22 = getelementptr inbounds nuw i8, ptr %21, i64 8
  %23 = load ptr, ptr %22, align 8, !tbaa !18
  %24 = tail call i32 @OPENSSL_sk_num(ptr noundef %23) #7
  %25 = icmp sgt i32 %24, 0
  br i1 %25, label %.lr.ph, label %._crit_edge

.lr.ph:                                           ; preds = %.lr.ph33, %.lr.ph
  %.02331 = phi i32 [ %29, %.lr.ph ], [ 0, %.lr.ph33 ]
  %26 = load ptr, ptr %22, align 8, !tbaa !18
  %27 = tail call ptr @OPENSSL_sk_value(ptr noundef %26, i32 noundef %.02331) #7
  %.val27 = load i32, ptr %21, align 8, !tbaa !33
  %28 = getelementptr i8, ptr %27, i64 16
  %.val28 = load ptr, ptr %28, align 8, !tbaa !24
  tail call void %1(i32 noundef %.val27, ptr noundef %.val28, ptr noundef %2) #7
  %29 = add nuw nsw i32 %.02331, 1
  %exitcond.not = icmp eq i32 %29, %24
  br i1 %exitcond.not, label %._crit_edge, label %.lr.ph, !llvm.loop !48

._crit_edge:                                      ; preds = %.lr.ph, %.lr.ph33
  %30 = add nuw nsw i32 %.032, 1
  %exitcond35.not = icmp eq i32 %30, %19
  br i1 %exitcond35.not, label %._crit_edge34, label %.lr.ph33, !llvm.loop !49

._crit_edge34:                                    ; preds = %._crit_edge, %ossl_property_unlock.exit30
  tail call void @OPENSSL_sk_free(ptr noundef nonnull %12) #7
  br label %31

31:                                               ; preds = %3, %._crit_edge34, %4, %ossl_property_unlock.exit
  ret void
}